target datalayout = "e-m:e-p270:32:32-p271:32:32-p272:64:64-i64:64-i128:128-f80:128-n8:16:32:64-S128"
target triple = "x86_64-pc-linux-gnu"

@.str.41 = private unnamed_addr constant [25 x i8] c"unable to get clock rate\00", align 1

; Function Attrs: nounwind uwtable
define dso_local i64 @jobacct_gather_get_clk_tck() #0 {
  %1 = alloca i64, align 8
  call void @llvm.lifetime.start.p0(i64 8, ptr %1) #8
  %2 = call i64 @sysconf(i32 noundef 2) #8
  store i64 %2, ptr %1, align 8
  %3 = load i64, ptr %1, align 8
  %4 = icmp slt i64 %3, 1
  br i1 %4, label %5, label %7

5:                                                ; preds = %0
  %6 = call i32 (ptr, ...) @error(ptr noundef @.str.41)
  store i64 100, ptr %1, align 8
  br label %7

7:                                                ; preds = %5, %0
  %8 = load i64, ptr %1, align 8
  call void @llvm.lifetime.end.p0(i64 8, ptr %1) #8
  ret i64 %8
}