; Function Attrs: nounwind uwtable
define dso_local range(i64 1, -9223372036854775808) i64 @jobacct_gather_get_clk_tck() local_unnamed_addr #0 {
  %1 = tail call i64 @sysconf(i32 noundef 2) #10
  %2 = icmp slt i64 %1, 1
  br i1 %2, label %3, label %5

3:                                                ; preds = %0
  %4 = tail call i32 (ptr, ...) @error(ptr noundef nonnull @.str.41) #10
  br label %5

5:                                                ; preds = %3, %0
  %.0 = phi i64 [ 100, %3 ], [ %1, %0 ]
  ret i64 %.0
}